; Function Attrs: nounwind uwtable
define internal void @zip_dealloc(ptr noundef %0) #0 {
  tail call void @PyObject_GC_UnTrack(ptr noundef %0) #9
  %2 = getelementptr inbounds nuw i8, ptr %0, i64 24
  %3 = load ptr, ptr %2, align 8, !tbaa !56
  %.not.i = icmp eq ptr %3, null
  br i1 %.not.i, label %Py_XDECREF.exit, label %4

4:                                                ; preds = %1
  %5 = load i32, ptr %3, align 8, !tbaa !33
  %.not.i.i = icmp sgt i32 %5, -1
  br i1 %.not.i.i, label %6, label %Py_XDECREF.exit

6:                                                ; preds = %4
  %7 = add nsw i32 %5, -1
  store i32 %7, ptr %3, align 8, !tbaa !33
  %8 = icmp eq i32 %7, 0
  br i1 %8, label %9, label %Py_XDECREF.exit

9:                                                ; preds = %6
  tail call void @_Py_Dealloc(ptr noundef nonnull %3) #9
  br label %Py_XDECREF.exit

Py_XDECREF.exit:                                  ; preds = %1, %4, %6, %9
  %10 = getelementptr inbounds nuw i8, ptr %0, i64 32
  %11 = load ptr, ptr %10, align 8, !tbaa !58
  %.not.i6 = icmp eq ptr %11, null
  br i1 %.not.i6, label %Py_XDECREF.exit8, label %12

12:                                               ; preds = %Py_XDECREF.exit
  %13 = load i32, ptr %11, align 8, !tbaa !33
  %.not.i.i7 = icmp sgt i32 %13, -1
  br i1 %.not.i.i7, label %14, label %Py_XDECREF.exit8

14:                                               ; preds = %12
  %15 = add nsw i32 %13, -1
  store i32 %15, ptr %11, align 8, !tbaa !33
  %16 = icmp eq i32 %15, 0
  br i1 %16, label %17, label %Py_XDECREF.exit8

17:                                               ; preds = %14
  tail call void @_Py_Dealloc(ptr noundef nonnull %11) #9
  br label %Py_XDECREF.exit8

Py_XDECREF.exit8:                                 ; preds = %Py_XDECREF.exit, %12, %14, %17
  %18 = getelementptr i8, ptr %0, i64 8
  %.val = load ptr, ptr %18, align 8, !tbaa !20
  %19 = getelementptr inbounds nuw i8, ptr %.val, i64 320
  %20 = load ptr, ptr %19, align 8, !tbaa !35
  tail call void %20(ptr noundef nonnull %0) #9
  ret void
}